; Function Attrs: nounwind uwtable
define internal void @srt_font_name_cb(ptr noundef %0, ptr noundef %1) #1 {
  %.not.not = icmp eq ptr %1, null
  %3 = getelementptr inbounds nuw i8, ptr %0, i64 1104
  %4 = load i32, ptr %3, align 8, !tbaa !58
  br i1 %.not.not, label %5, label %30

5:                                                ; preds = %2
  %6 = getelementptr inbounds nuw i8, ptr %0, i64 1040
  %7 = zext i32 %4 to i64
  %smin.i.i = tail call i32 @llvm.smin.i32(i32 %4, i32 0)
  %8 = add i32 %smin.i.i, -1
  br label %9

9:                                                ; preds = %12, %5
  %indvars.iv.i.i = phi i64 [ %indvars.iv.next.i.i, %12 ], [ %7, %5 ]
  %10 = trunc nuw i64 %indvars.iv.i.i to i32
  %11 = icmp sgt i32 %10, 0
  br i1 %11, label %12, label %srt_stack_find.exit.i

12:                                               ; preds = %9
  %indvars.iv.next.i.i = add nsw i64 %indvars.iv.i.i, -1
  %13 = and i64 %indvars.iv.next.i.i, 4294967295
  %14 = getelementptr inbounds nuw [64 x i8], ptr %6, i64 0, i64 %13
  %15 = load i8, ptr %14, align 1, !tbaa !59
  %16 = icmp eq i8 %15, 102
  br i1 %16, label %.split.loop.exit.i.i, label %9, !llvm.loop !64

.split.loop.exit.i.i:                             ; preds = %12
  %indvars.le.i.i = trunc i64 %indvars.iv.next.i.i to i32
  br label %srt_stack_find.exit.i

srt_stack_find.exit.i:                            ; preds = %9, %.split.loop.exit.i.i
  %17 = phi i32 [ %indvars.le.i.i, %.split.loop.exit.i.i ], [ %8, %9 ]
  %18 = icmp slt i32 %17, 0
  %.not1217.i = icmp eq i32 %4, %17
  %or.cond = select i1 %18, i1 true, i1 %.not1217.i
  br i1 %or.cond, label %srt_stack_push_pop.exit, label %.lr.ph.i

.lr.ph.i:                                         ; preds = %srt_stack_find.exit.i, %srt_stack_pop.exit.thread.i
  %19 = phi i32 [ %29, %srt_stack_pop.exit.thread.i ], [ %4, %srt_stack_find.exit.i ]
  %20 = icmp slt i32 %19, 1
  br i1 %20, label %srt_stack_pop.exit.thread.i, label %srt_stack_pop.exit.i

srt_stack_pop.exit.i:                             ; preds = %.lr.ph.i
  %21 = add nsw i32 %19, -1
  store i32 %21, ptr %3, align 8, !tbaa !58
  %22 = zext nneg i32 %21 to i64
  %23 = getelementptr inbounds nuw [64 x i8], ptr %6, i64 0, i64 %22
  %24 = load i8, ptr %23, align 1, !tbaa !59
  %.fr.i = freeze i8 %24
  %25 = sext i8 %.fr.i to i32
  %26 = icmp eq i8 %.fr.i, 102
  %spec.select.i = select i1 %26, ptr @.str.21, ptr @.str.22
  br label %srt_stack_pop.exit.thread.i

srt_stack_pop.exit.thread.i:                      ; preds = %srt_stack_pop.exit.i, %.lr.ph.i
  %27 = phi i32 [ 0, %.lr.ph.i ], [ %25, %srt_stack_pop.exit.i ]
  %28 = phi ptr [ @.str.22, %.lr.ph.i ], [ %spec.select.i, %srt_stack_pop.exit.i ]
  tail call void (ptr, ptr, ...) @srt_print(ptr noundef nonnull %0, ptr noundef nonnull @.str.20, i32 noundef %27, ptr noundef nonnull %28)
  %29 = load i32, ptr %3, align 8, !tbaa !58
  %.not12.i = icmp eq i32 %29, %17
  br i1 %.not12.i, label %srt_stack_push_pop.exit, label %.lr.ph.i, !llvm.loop !65

30:                                               ; preds = %2
  %31 = icmp sgt i32 %4, 63
  br i1 %31, label %36, label %srt_stack_push.exit.i

srt_stack_push.exit.i:                            ; preds = %30
  %32 = getelementptr inbounds nuw i8, ptr %0, i64 1040
  %33 = add nsw i32 %4, 1
  store i32 %33, ptr %3, align 8, !tbaa !58
  %34 = sext i32 %4 to i64
  %35 = getelementptr inbounds [64 x i8], ptr %32, i64 0, i64 %34
  store i8 102, ptr %35, align 1, !tbaa !59
  br label %srt_stack_push_pop.exit.thread

36:                                               ; preds = %30
  %37 = load ptr, ptr %0, align 8, !tbaa !27
  tail call void (ptr, i32, ptr, ...) @av_log(ptr noundef %37, i32 noundef 16, ptr noundef nonnull @.str.19) #8
  br label %srt_stack_push_pop.exit.thread

srt_stack_push_pop.exit.thread:                   ; preds = %36, %srt_stack_push.exit.i
  tail call void (ptr, ptr, ...) @srt_print(ptr noundef nonnull %0, ptr noundef nonnull @.str.24, ptr noundef nonnull %1)
  br label %srt_stack_push_pop.exit

srt_stack_push_pop.exit:                          ; preds = %srt_stack_pop.exit.thread.i, %srt_stack_find.exit.i, %srt_stack_push_pop.exit.thread
  ret void
}